#include <math.h>
#include <stdio.h>
#include <stdlib.h>
#include <string.h>

int main(){
	int i,j,n,sz[10000],a,b=0;
    scanf("%d",&a);
	while(a!=1){
		if(a%2==0){
			b=a;
			a=a/2;
			printf("%d/2=%d\n",b,a);
		}else{
			b=a;
			a=a*3+1;
			printf("%d*3+1=%d\n",b,a);
		}
	}
	printf("End\n");
	return 0;
}