; ModuleID = '34/493.c'
source_filename = "34/493.c"
target datalayout = "e-m:e-p270:32:32-p271:32:32-p272:64:64-i64:64-f80:128-n8:16:32:64-S128"
target triple = "x86_64-pc-linux-gnu"

@.str = private unnamed_addr constant [3 x i8] c"%d\00", align 1
@.str.1 = private unnamed_addr constant [9 x i8] c"%d/2=%d\0A\00", align 1
@.str.2 = private unnamed_addr constant [11 x i8] c"%d*3+1=%d\0A\00", align 1
@.str.3 = private unnamed_addr constant [5 x i8] c"End\0A\00", align 1

; Function Attrs: noinline nounwind uwtable
define dso_local i32 @main() #0 {
  %1 = alloca i32, align 4
  %2 = alloca i32, align 4
  %3 = alloca i32, align 4
  %4 = alloca i32, align 4
  %5 = alloca [10000 x i32], align 16
  %6 = alloca i32, align 4
  %7 = alloca i32, align 4
  store i32 0, i32* %1, align 4
  store i32 0, i32* %7, align 4
  %8 = call i32 (i8*, ...) @__isoc99_scanf(i8* getelementptr inbounds ([3 x i8], [3 x i8]* @.str, i64 0, i64 0), i32* %6)
  br label %9

9:                                                ; preds = %31, %0
  %10 = load i32, i32* %6, align 4
  %11 = icmp ne i32 %10, 1
  br i1 %11, label %12, label %32

12:                                               ; preds = %9
  %13 = load i32, i32* %6, align 4
  %14 = srem i32 %13, 2
  %15 = icmp eq i32 %14, 0
  br i1 %15, label %16, label %23

16:                                               ; preds = %12
  %17 = load i32, i32* %6, align 4
  store i32 %17, i32* %7, align 4
  %18 = load i32, i32* %6, align 4
  %19 = sdiv i32 %18, 2
  store i32 %19, i32* %6, align 4
  %20 = load i32, i32* %7, align 4
  %21 = load i32, i32* %6, align 4
  %22 = call i32 (i8*, ...) @printf(i8* getelementptr inbounds ([9 x i8], [9 x i8]* @.str.1, i64 0, i64 0), i32 %20, i32 %21)
  br label %31

23:                                               ; preds = %12
  %24 = load i32, i32* %6, align 4
  store i32 %24, i32* %7, align 4
  %25 = load i32, i32* %6, align 4
  %26 = mul nsw i32 %25, 3
  %27 = add nsw i32 %26, 1
  store i32 %27, i32* %6, align 4
  %28 = load i32, i32* %7, align 4
  %29 = load i32, i32* %6, align 4
  %30 = call i32 (i8*, ...) @printf(i8* getelementptr inbounds ([11 x i8], [11 x i8]* @.str.2, i64 0, i64 0), i32 %28, i32 %29)
  br label %31

31:                                               ; preds = %23, %16
  br label %9

32:                                               ; preds = %9
  %33 = call i32 (i8*, ...) @printf(i8* getelementptr inbounds ([5 x i8], [5 x i8]* @.str.3, i64 0, i64 0))
  ret i32 0
}

declare dso_local i32 @__isoc99_scanf(i8*, ...) #1

declare dso_local i32 @printf(i8*, ...) #1


!llvm.module.flags = !{!0}
!llvm.ident = !{!1}

!0 = !{i32 1, !"wchar_size", i32 4}
!1 = !{!"clang version 10.0.0-4ubuntu1 "}
